; Function Attrs: mustprogress nofree norecurse nosync nounwind willreturn memory(read, inaccessiblemem: none) uwtable
define dso_local i32 @ReorderBufferGetOldestXmin(ptr noundef readonly captures(address) %0) local_unnamed_addr #8 {
  %2 = getelementptr inbounds nuw i8, ptr %0, i64 24
  %3 = getelementptr inbounds nuw i8, ptr %0, i64 32
  %4 = load ptr, ptr %3, align 8
  %5 = icmp eq ptr %4, null
  %6 = icmp eq ptr %4, %2
  %spec.select.i = or i1 %5, %6
  br i1 %spec.select.i, label %12, label %7

7:                                                ; preds = %1
  %8 = getelementptr inbounds i8, ptr %4, i64 -16
  %9 = load ptr, ptr %8, align 8
  %10 = getelementptr inbounds nuw i8, ptr %9, i64 4
  %11 = load i32, ptr %10, align 4
  br label %12

12:                                               ; preds = %1, %7
  %.0 = phi i32 [ %11, %7 ], [ 0, %1 ]
  ret i32 %.0
}